target datalayout = "e-m:e-p270:32:32-p271:32:32-p272:64:64-i64:64-i128:128-f80:128-n8:16:32:64-S128"
target triple = "x86_64-pc-linux-gnu"

%struct.lua_State = type { i8, i8, i8, i8, i8, i8, i8, ptr, ptr, ptr, ptr, ptr, ptr, ptr, ptr, i32, i32, i16, i16, i32, ptr, ptr, ptr, ptr, ptr }
%struct.global_State = type { %struct.stringtable, ptr, ptr, i8, i8, ptr, ptr, ptr, i64, i64, i32, i32, i32, [40 x ptr], [40 x ptr], ptr, ptr, ptr, [256 x i64], ptr, %struct.UpVal, [11 x ptr], [11 x ptr], [21 x ptr], %struct.lua_TValue, %struct.lua_TValue, i32, ptr, i64, [4 x i64], %struct.lua_Callbacks, %struct.lua_ExecutionCallbacks, [128 x ptr], [128 x ptr], [128 x ptr], %struct.GCStats }
%struct.stringtable = type { ptr, i32, i32 }
%struct.UpVal = type { i8, i8, i8, i8, ptr, %union.anon }
%union.anon = type { %struct.anon }
%struct.anon = type { ptr, ptr, ptr }
%struct.lua_TValue = type { %union.Value, [1 x i32], i32 }
%union.Value = type { ptr }
%struct.lua_Callbacks = type { ptr, ptr, ptr, ptr, ptr, ptr, ptr, ptr, ptr }
%struct.lua_ExecutionCallbacks = type { ptr, ptr, ptr, ptr, ptr, ptr, ptr }
%struct.GCStats = type { [32 x i32], i32, i32, i64, i64, i64, double, double, double }

@.str.9 = private unnamed_addr constant [7 x i8] c"thread\00", align 1

; Function Attrs: mustprogress uwtable
define internal noundef i32 @_ZL14coresumefinishP9lua_Statei(ptr noundef %0, i32 noundef %1) #0 {
  %3 = alloca i32, align 4
  %4 = alloca ptr, align 8
  %5 = alloca i32, align 4
  store ptr %0, ptr %4, align 8
  store i32 %1, ptr %5, align 4
  %6 = load i32, ptr %5, align 4
  %7 = icmp slt i32 %6, 0
  br i1 %7, label %8, label %11

8:                                                ; preds = %2
  %9 = load ptr, ptr %4, align 8
  call void @_Z15lua_pushbooleanP9lua_Statei(ptr noundef %9, i32 noundef 0)
  %10 = load ptr, ptr %4, align 8
  call void @_Z10lua_insertP9lua_Statei(ptr noundef %10, i32 noundef -2)
  store i32 2, ptr %3, align 4
  br label %19

11:                                               ; preds = %2
  %12 = load ptr, ptr %4, align 8
  call void @_Z15lua_pushbooleanP9lua_Statei(ptr noundef %12, i32 noundef 1)
  %13 = load ptr, ptr %4, align 8
  %14 = load i32, ptr %5, align 4
  %15 = add nsw i32 %14, 1
  %16 = sub nsw i32 0, %15
  call void @_Z10lua_insertP9lua_Statei(ptr noundef %13, i32 noundef %16)
  %17 = load i32, ptr %5, align 4
  %18 = add nsw i32 %17, 1
  store i32 %18, ptr %3, align 4
  br label %19

19:                                               ; preds = %11, %8
  %20 = load i32, ptr %3, align 4
  ret i32 %20
}

; Function Attrs: mustprogress uwtable
define internal noundef i32 @_ZL15interruptThreadP9lua_StateS0_(ptr noundef %0, ptr noundef %1) #0 {
  %3 = alloca ptr, align 8
  %4 = alloca ptr, align 8
  store ptr %0, ptr %3, align 8
  store ptr %1, ptr %4, align 8
  %5 = load ptr, ptr %3, align 8
  %6 = getelementptr inbounds %struct.lua_State, ptr %5, i32 0, i32 9
  %7 = load ptr, ptr %6, align 8
  %8 = getelementptr inbounds %struct.global_State, ptr %7, i32 0, i32 30
  %9 = getelementptr inbounds %struct.lua_Callbacks, ptr %8, i32 0, i32 7
  %10 = load ptr, ptr %9, align 8
  %11 = icmp ne ptr %10, null
  br i1 %11, label %12, label %21

12:                                               ; preds = %2
  %13 = load ptr, ptr %3, align 8
  %14 = load ptr, ptr %3, align 8
  %15 = getelementptr inbounds %struct.lua_State, ptr %14, i32 0, i32 9
  %16 = load ptr, ptr %15, align 8
  %17 = getelementptr inbounds %struct.global_State, ptr %16, i32 0, i32 30
  %18 = getelementptr inbounds %struct.lua_Callbacks, ptr %17, i32 0, i32 7
  %19 = load ptr, ptr %18, align 8
  %20 = load ptr, ptr %4, align 8
  call void @_Z13luau_callhookP9lua_StatePFvS0_P9lua_DebugEPv(ptr noundef %13, ptr noundef %19, ptr noundef %20)
  br label %21

21:                                               ; preds = %12, %2
  %22 = load ptr, ptr %3, align 8
  %23 = call noundef i32 @_Z9lua_breakP9lua_State(ptr noundef %22)
  ret i32 %23
}

; Function Attrs: mustprogress uwtable
define internal noundef i32 @_ZL9coresumeyP9lua_State(ptr noundef %0) #0 {
  %2 = alloca i32, align 4
  %3 = alloca ptr, align 8
  %4 = alloca ptr, align 8
  %5 = alloca i32, align 4
  %6 = alloca i32, align 4
  store ptr %0, ptr %3, align 8
  %7 = load ptr, ptr %3, align 8
  %8 = call noundef ptr @_Z12lua_tothreadP9lua_Statei(ptr noundef %7, i32 noundef 1)
  store ptr %8, ptr %4, align 8
  %9 = load ptr, ptr %4, align 8
  %10 = icmp ne ptr %9, null
  br i1 %10, label %11, label %12

11:                                               ; preds = %1
  br label %15

12:                                               ; preds = %1
  %13 = load ptr, ptr %3, align 8
  call void @_Z15luaL_typeerrorLP9lua_StateiPKc(ptr noundef %13, i32 noundef 1, ptr noundef @.str.9) #3
  unreachable

14:                                               ; No predecessors!
  br label %15

15:                                               ; preds = %14, %11
  %16 = load ptr, ptr %3, align 8
  %17 = getelementptr inbounds %struct.lua_State, ptr %16, i32 0, i32 7
  %18 = load ptr, ptr %17, align 8
  %19 = load ptr, ptr %3, align 8
  %20 = getelementptr inbounds %struct.lua_State, ptr %19, i32 0, i32 8
  %21 = load ptr, ptr %20, align 8
  %22 = ptrtoint ptr %18 to i64
  %23 = ptrtoint ptr %21 to i64
  %24 = sub i64 %22, %23
  %25 = sdiv exact i64 %24, 16
  %26 = trunc i64 %25 to i32
  %27 = sub nsw i32 %26, 1
  store i32 %27, ptr %5, align 4
  %28 = load ptr, ptr %3, align 8
  %29 = load ptr, ptr %4, align 8
  %30 = load i32, ptr %5, align 4
  %31 = call noundef i32 @_ZL9auxresumeP9lua_StateS0_i(ptr noundef %28, ptr noundef %29, i32 noundef %30)
  store i32 %31, ptr %6, align 4
  %32 = load i32, ptr %6, align 4
  %33 = icmp eq i32 %32, -2
  br i1 %33, label %34, label %38

34:                                               ; preds = %15
  %35 = load ptr, ptr %3, align 8
  %36 = load ptr, ptr %4, align 8
  %37 = call noundef i32 @_ZL15interruptThreadP9lua_StateS0_(ptr noundef %35, ptr noundef %36)
  store i32 %37, ptr %2, align 4
  br label %42

38:                                               ; preds = %15
  %39 = load ptr, ptr %3, align 8
  %40 = load i32, ptr %6, align 4
  %41 = call noundef i32 @_ZL14coresumefinishP9lua_Statei(ptr noundef %39, i32 noundef %40)
  store i32 %41, ptr %2, align 4
  br label %42

42:                                               ; preds = %38, %34
  %43 = load i32, ptr %2, align 4
  ret i32 %43
}