; Function Attrs: mustprogress uwtable
define internal noundef i32 @_ZL9coresumeyP9lua_State(ptr noundef %0) #0 {
  %2 = tail call noundef ptr @_Z12lua_tothreadP9lua_Statei(ptr noundef %0, i32 noundef 1)
  %.not = icmp eq ptr %2, null
  br i1 %.not, label %3, label %4

3:                                                ; preds = %1
  tail call void @_Z15luaL_typeerrorLP9lua_StateiPKc(ptr noundef %0, i32 noundef 1, ptr noundef nonnull @.str.9) #3
  unreachable

4:                                                ; preds = %1
  %5 = getelementptr inbounds i8, ptr %0, i64 8
  %6 = load ptr, ptr %5, align 8
  %7 = getelementptr inbounds i8, ptr %0, i64 16
  %8 = load ptr, ptr %7, align 8
  %9 = ptrtoint ptr %6 to i64
  %10 = ptrtoint ptr %8 to i64
  %11 = sub i64 %9, %10
  %12 = lshr exact i64 %11, 4
  %13 = trunc i64 %12 to i32
  %14 = add nsw i32 %13, -1
  %15 = tail call fastcc noundef i32 @_ZL9auxresumeP9lua_StateS0_i(ptr noundef %0, ptr noundef nonnull %2, i32 noundef %14)
  %16 = icmp eq i32 %15, -2
  br i1 %16, label %17, label %24

17:                                               ; preds = %4
  %18 = getelementptr inbounds i8, ptr %0, i64 24
  %19 = load ptr, ptr %18, align 8
  %20 = getelementptr inbounds i8, ptr %19, i64 3344
  %21 = load ptr, ptr %20, align 8
  %.not.i = icmp eq ptr %21, null
  br i1 %.not.i, label %_ZL15interruptThreadP9lua_StateS0_.exit, label %22

22:                                               ; preds = %17
  tail call void @_Z13luau_callhookP9lua_StatePFvS0_P9lua_DebugEPv(ptr noundef nonnull %0, ptr noundef nonnull %21, ptr noundef nonnull %2)
  br label %_ZL15interruptThreadP9lua_StateS0_.exit

_ZL15interruptThreadP9lua_StateS0_.exit:          ; preds = %17, %22
  %23 = tail call noundef i32 @_Z9lua_breakP9lua_State(ptr noundef nonnull %0)
  br label %30

24:                                               ; preds = %4
  %25 = icmp slt i32 %15, 0
  br i1 %25, label %26, label %27

26:                                               ; preds = %24
  tail call void @_Z15lua_pushbooleanP9lua_Statei(ptr noundef nonnull %0, i32 noundef 0)
  br label %_ZL14coresumefinishP9lua_Statei.exit

27:                                               ; preds = %24
  tail call void @_Z15lua_pushbooleanP9lua_Statei(ptr noundef nonnull %0, i32 noundef 1)
  %28 = add nuw nsw i32 %15, 1
  %29 = xor i32 %15, -1
  br label %_ZL14coresumefinishP9lua_Statei.exit

_ZL14coresumefinishP9lua_Statei.exit:             ; preds = %26, %27
  %.sink.i = phi i32 [ %29, %27 ], [ -2, %26 ]
  %.0.i = phi i32 [ %28, %27 ], [ 2, %26 ]
  tail call void @_Z10lua_insertP9lua_Statei(ptr noundef nonnull %0, i32 noundef %.sink.i)
  br label %30

30:                                               ; preds = %_ZL14coresumefinishP9lua_Statei.exit, %_ZL15interruptThreadP9lua_StateS0_.exit
  %.0 = phi i32 [ %23, %_ZL15interruptThreadP9lua_StateS0_.exit ], [ %.0.i, %_ZL14coresumefinishP9lua_Statei.exit ]
  ret i32 %.0
}